; Function Attrs: nofree norecurse nosync nounwind memory(argmem: read) uwtable
define dso_local range(i32 -255, 256) i32 @guc_name_compare(ptr noundef readonly captures(none) %0, ptr noundef readonly captures(none) %1) local_unnamed_addr #8 {
  br label %3

3:                                                ; preds = %7, %2
  %.025 = phi ptr [ %0, %2 ], [ %8, %7 ]
  %.024 = phi ptr [ %1, %2 ], [ %9, %7 ]
  %4 = load i8, ptr %.025, align 1
  %.not = icmp eq i8 %4, 0
  %5 = load i8, ptr %.024, align 1
  br i1 %.not, label %14, label %6

6:                                                ; preds = %3
  %.not31 = icmp eq i8 %5, 0
  br i1 %.not31, label %.critedge, label %7

7:                                                ; preds = %6
  %8 = getelementptr inbounds nuw i8, ptr %.025, i64 1
  %9 = getelementptr inbounds nuw i8, ptr %.024, i64 1
  %10 = add i8 %4, -65
  %or.cond = icmp ult i8 %10, 26
  %11 = or disjoint i8 %4, 32
  %spec.select = select i1 %or.cond, i8 %11, i8 %4
  %12 = add i8 %5, -65
  %or.cond5 = icmp ult i8 %12, 26
  %13 = or disjoint i8 %5, 32
  %.022 = select i1 %or.cond5, i8 %13, i8 %5
  %.not34.not = icmp eq i8 %spec.select, %.022
  br i1 %.not34.not, label %3, label %.critedge.loopexit.split.loop.exit

14:                                               ; preds = %3
  %.not33 = icmp ne i8 %5, 0
  %. = sext i1 %.not33 to i32
  br label %.critedge

.critedge.loopexit.split.loop.exit:               ; preds = %7
  %15 = sext i8 %.022 to i32
  %16 = sext i8 %spec.select to i32
  %17 = sub nsw i32 %16, %15
  br label %.critedge

.critedge:                                        ; preds = %6, %.critedge.loopexit.split.loop.exit, %14
  %.2 = phi i32 [ %., %14 ], [ %17, %.critedge.loopexit.split.loop.exit ], [ 1, %6 ]
  ret i32 %.2
}